; Function Attrs: mustprogress uwtable
define noundef i32 @_ZN10colvarbias11calc_forcesEPKSt6vectorI11colvarvalueSaIS1_EE(ptr nocapture noundef nonnull readonly align 8 dereferenceable(312) %0, ptr nocapture readnone %1) unnamed_addr #0 align 2 {
  %3 = getelementptr inbounds i8, ptr %0, i64 152
  %4 = getelementptr inbounds i8, ptr %0, i64 160
  %5 = load ptr, ptr %4, align 8
  %6 = load ptr, ptr %3, align 8
  %.not = icmp eq ptr %5, %6
  br i1 %.not, label %._crit_edge, label %.lr.ph

.lr.ph:                                           ; preds = %2
  %7 = getelementptr inbounds i8, ptr %0, i64 200
  br label %8

8:                                                ; preds = %.lr.ph, %8
  %.03 = phi i64 [ 0, %.lr.ph ], [ %11, %8 ]
  %9 = load ptr, ptr %7, align 8
  %10 = getelementptr inbounds %class.colvarvalue, ptr %9, i64 %.03
  tail call void @_ZN11colvarvalue5resetEv(ptr noundef nonnull align 8 dereferenceable(168) %10)
  %11 = add nuw i64 %.03, 1
  %12 = load ptr, ptr %4, align 8
  %13 = load ptr, ptr %3, align 8
  %14 = ptrtoint ptr %12 to i64
  %15 = ptrtoint ptr %13 to i64
  %16 = sub i64 %14, %15
  %17 = ashr exact i64 %16, 3
  %18 = icmp ult i64 %11, %17
  br i1 %18, label %8, label %._crit_edge, !llvm.loop !7

._crit_edge:                                      ; preds = %8, %2
  ret i32 0
}